target datalayout = "e-m:e-p270:32:32-p271:32:32-p272:64:64-i64:64-i128:128-f80:128-n8:16:32:64-S128"
target triple = "x86_64-unknown-linux-gnu"

%"class.google::protobuf::internal::InternalMetadata" = type { i64 }
%"class.google::protobuf::internal::CachedSize" = type { i32 }
%union.anon.15 = type { %"struct.google::protobuf::BoolValue::Impl_" }
%"struct.google::protobuf::BoolValue::Impl_" = type { i8, %"class.google::protobuf::internal::CachedSize" }
%"class.google::protobuf::Message" = type { %"class.google::protobuf::MessageLite" }
%"class.google::protobuf::MessageLite" = type { ptr, %"class.google::protobuf::internal::InternalMetadata" }
%"class.google::protobuf::BoolValue" = type { %"class.google::protobuf::Message", %union.anon.15 }

; Function Attrs: mustprogress nounwind uwtable
define linkonce_odr hidden noundef zeroext i1 @_ZNK6google8protobuf9BoolValue15_internal_valueEv(ptr noundef nonnull align 8 dereferenceable(24) %this) #5 comdat align 2 {
entry:
  %this.addr = alloca ptr, align 8
  store ptr %this, ptr %this.addr, align 8
  %this1 = load ptr, ptr %this.addr, align 8
  %0 = getelementptr inbounds %"class.google::protobuf::BoolValue", ptr %this1, i32 0, i32 1
  %value_ = getelementptr inbounds %"struct.google::protobuf::BoolValue::Impl_", ptr %0, i32 0, i32 0
  %1 = load i8, ptr %value_, align 8
  %tobool = trunc i8 %1 to i1
  ret i1 %tobool
}

; Function Attrs: mustprogress uwtable
define noundef i64 @_ZNK6google8protobuf9BoolValue12ByteSizeLongEv(ptr noundef nonnull align 8 dereferenceable(24) %this) unnamed_addr #4 align 2 {
entry:
  %this.addr = alloca ptr, align 8
  %total_size = alloca i64, align 8
  %cached_has_bits = alloca i32, align 4
  store ptr %this, ptr %this.addr, align 8
  %this1 = load ptr, ptr %this.addr, align 8
  store i64 0, ptr %total_size, align 8
  store i32 0, ptr %cached_has_bits, align 4
  %call = call noundef zeroext i1 @_ZNK6google8protobuf9BoolValue15_internal_valueEv(ptr noundef nonnull align 8 dereferenceable(24) %this1)
  %conv = zext i1 %call to i32
  %cmp = icmp ne i32 %conv, 0
  br i1 %cmp, label %if.then, label %if.end

if.then:                                          ; preds = %entry
  %0 = load i64, ptr %total_size, align 8
  %add = add i64 %0, 2
  store i64 %add, ptr %total_size, align 8
  br label %if.end

if.end:                                           ; preds = %if.then, %entry
  %1 = load i64, ptr %total_size, align 8
  %2 = getelementptr inbounds %"class.google::protobuf::BoolValue", ptr %this1, i32 0, i32 1
  %_cached_size_ = getelementptr inbounds %"struct.google::protobuf::BoolValue::Impl_", ptr %2, i32 0, i32 1
  %call2 = call noundef i64 @_ZNK6google8protobuf7Message29MaybeComputeUnknownFieldsSizeEmPNS0_8internal10CachedSizeE(ptr noundef nonnull align 8 dereferenceable(16) %this1, i64 noundef %1, ptr noundef %_cached_size_)
  ret i64 %call2
}