; Function Attrs: mustprogress uwtable
define noundef i64 @_ZNK6google8protobuf9BoolValue12ByteSizeLongEv(ptr noundef nonnull align 8 dereferenceable(24) %this) unnamed_addr #3 align 2 {
entry:
  %0 = getelementptr inbounds i8, ptr %this, i64 16
  %1 = load i8, ptr %0, align 8
  %2 = shl i8 %1, 1
  %3 = and i8 %2, 2
  %spec.select = zext nneg i8 %3 to i64
  %_cached_size_ = getelementptr inbounds i8, ptr %this, i64 20
  %call2 = tail call noundef i64 @_ZNK6google8protobuf7Message29MaybeComputeUnknownFieldsSizeEmPNS0_8internal10CachedSizeE(ptr noundef nonnull align 8 dereferenceable(16) %this, i64 noundef %spec.select, ptr noundef nonnull %_cached_size_)
  ret i64 %call2
}